target datalayout = "e-m:e-p270:32:32-p271:32:32-p272:64:64-i64:64-i128:128-f80:128-n8:16:32:64-S128"
target triple = "x86_64-pc-linux-gnu"

%"class.cv::epnp" = type { double, double, double, double, %"class.std::vector", %"class.std::vector", %"class.std::vector", %"class.std::vector", i32, [4 x [3 x double]], [4 x [3 x double]], i32, ptr, ptr }
%"class.std::vector" = type { %"struct.std::_Vector_base" }
%"struct.std::_Vector_base" = type { %"struct.std::_Vector_base<double, std::allocator<double>>::_Vector_impl" }
%"struct.std::_Vector_base<double, std::allocator<double>>::_Vector_impl" = type { %"struct.std::_Vector_base<double, std::allocator<double>>::_Vector_impl_data" }
%"struct.std::_Vector_base<double, std::allocator<double>>::_Vector_impl_data" = type { ptr, ptr, ptr }

; Function Attrs: mustprogress nounwind uwtable
define linkonce_odr hidden noundef nonnull align 8 dereferenceable(8) ptr @_ZNSt6vectorIdSaIdEEixEm(ptr noundef nonnull align 8 dereferenceable(24) %0, i64 noundef %1) #5 comdat align 2 {
  %3 = alloca ptr, align 8
  %4 = alloca i64, align 8
  store ptr %0, ptr %3, align 8, !tbaa !23
  store i64 %1, ptr %4, align 8, !tbaa !42
  %5 = load ptr, ptr %3, align 8
  %6 = getelementptr inbounds nuw %"struct.std::_Vector_base", ptr %5, i32 0, i32 0
  %7 = getelementptr inbounds nuw %"struct.std::_Vector_base<double, std::allocator<double>>::_Vector_impl_data", ptr %6, i32 0, i32 0
  %8 = load ptr, ptr %7, align 8, !tbaa !44
  %9 = load i64, ptr %4, align 8, !tbaa !42
  %10 = getelementptr inbounds nuw double, ptr %8, i64 %9
  ret ptr %10
}

; Function Attrs: mustprogress nounwind uwtable
define hidden void @_ZN2cv4epnp14solve_for_signEv(ptr noundef nonnull align 8 dereferenceable(352) %0) #5 align 2 {
  %2 = alloca ptr, align 8
  %3 = alloca i32, align 4
  %4 = alloca i32, align 4
  %5 = alloca i32, align 4
  %6 = alloca i32, align 4
  store ptr %0, ptr %2, align 8, !tbaa !3
  %7 = load ptr, ptr %2, align 8
  %8 = getelementptr inbounds nuw %"class.cv::epnp", ptr %7, i32 0, i32 7
  %9 = call noundef nonnull align 8 dereferenceable(8) ptr @_ZNSt6vectorIdSaIdEEixEm(ptr noundef nonnull align 8 dereferenceable(24) %8, i64 noundef 2) #3
  %10 = load double, ptr %9, align 8, !tbaa !40
  %11 = fcmp olt double %10, 0.000000e+00
  br i1 %11, label %12, label %98

12:                                               ; preds = %1
  call void @llvm.lifetime.start.p0(i64 4, ptr %3) #3
  store i32 0, ptr %3, align 4, !tbaa !10
  br label %13

13:                                               ; preds = %43, %12
  %14 = load i32, ptr %3, align 4, !tbaa !10
  %15 = icmp slt i32 %14, 4
  br i1 %15, label %17, label %16

16:                                               ; preds = %13
  store i32 2, ptr %4, align 4
  call void @llvm.lifetime.end.p0(i64 4, ptr %3) #3
  br label %46

17:                                               ; preds = %13
  call void @llvm.lifetime.start.p0(i64 4, ptr %5) #3
  store i32 0, ptr %5, align 4, !tbaa !10
  br label %18

18:                                               ; preds = %39, %17
  %19 = load i32, ptr %5, align 4, !tbaa !10
  %20 = icmp slt i32 %19, 3
  br i1 %20, label %22, label %21

21:                                               ; preds = %18
  store i32 5, ptr %4, align 4
  call void @llvm.lifetime.end.p0(i64 4, ptr %5) #3
  br label %42

22:                                               ; preds = %18
  %23 = getelementptr inbounds nuw %"class.cv::epnp", ptr %7, i32 0, i32 10
  %24 = load i32, ptr %3, align 4, !tbaa !10
  %25 = sext i32 %24 to i64
  %26 = getelementptr inbounds [4 x [3 x double]], ptr %23, i64 0, i64 %25
  %27 = load i32, ptr %5, align 4, !tbaa !10
  %28 = sext i32 %27 to i64
  %29 = getelementptr inbounds [3 x double], ptr %26, i64 0, i64 %28
  %30 = load double, ptr %29, align 8, !tbaa !40
  %31 = fneg double %30
  %32 = getelementptr inbounds nuw %"class.cv::epnp", ptr %7, i32 0, i32 10
  %33 = load i32, ptr %3, align 4, !tbaa !10
  %34 = sext i32 %33 to i64
  %35 = getelementptr inbounds [4 x [3 x double]], ptr %32, i64 0, i64 %34
  %36 = load i32, ptr %5, align 4, !tbaa !10
  %37 = sext i32 %36 to i64
  %38 = getelementptr inbounds [3 x double], ptr %35, i64 0, i64 %37
  store double %31, ptr %38, align 8, !tbaa !40
  br label %39

39:                                               ; preds = %22
  %40 = load i32, ptr %5, align 4, !tbaa !10
  %41 = add nsw i32 %40, 1
  store i32 %41, ptr %5, align 4, !tbaa !10
  br label %18, !llvm.loop !115

42:                                               ; preds = %21
  br label %43

43:                                               ; preds = %42
  %44 = load i32, ptr %3, align 4, !tbaa !10
  %45 = add nsw i32 %44, 1
  store i32 %45, ptr %3, align 4, !tbaa !10
  br label %13, !llvm.loop !116

46:                                               ; preds = %16
  call void @llvm.lifetime.start.p0(i64 4, ptr %6) #3
  store i32 0, ptr %6, align 4, !tbaa !10
  br label %47

47:                                               ; preds = %94, %46
  %48 = load i32, ptr %6, align 4, !tbaa !10
  %49 = getelementptr inbounds nuw %"class.cv::epnp", ptr %7, i32 0, i32 8
  %50 = load i32, ptr %49, align 8, !tbaa !12
  %51 = icmp slt i32 %48, %50
  br i1 %51, label %53, label %52

52:                                               ; preds = %47
  store i32 8, ptr %4, align 4
  call void @llvm.lifetime.end.p0(i64 4, ptr %6) #3
  br label %97

53:                                               ; preds = %47
  %54 = getelementptr inbounds nuw %"class.cv::epnp", ptr %7, i32 0, i32 7
  %55 = load i32, ptr %6, align 4, !tbaa !10
  %56 = mul nsw i32 3, %55
  %57 = sext i32 %56 to i64
  %58 = call noundef nonnull align 8 dereferenceable(8) ptr @_ZNSt6vectorIdSaIdEEixEm(ptr noundef nonnull align 8 dereferenceable(24) %54, i64 noundef %57) #3
  %59 = load double, ptr %58, align 8, !tbaa !40
  %60 = fneg double %59
  %61 = getelementptr inbounds nuw %"class.cv::epnp", ptr %7, i32 0, i32 7
  %62 = load i32, ptr %6, align 4, !tbaa !10
  %63 = mul nsw i32 3, %62
  %64 = sext i32 %63 to i64
  %65 = call noundef nonnull align 8 dereferenceable(8) ptr @_ZNSt6vectorIdSaIdEEixEm(ptr noundef nonnull align 8 dereferenceable(24) %61, i64 noundef %64) #3
  store double %60, ptr %65, align 8, !tbaa !40
  %66 = getelementptr inbounds nuw %"class.cv::epnp", ptr %7, i32 0, i32 7
  %67 = load i32, ptr %6, align 4, !tbaa !10
  %68 = mul nsw i32 3, %67
  %69 = add nsw i32 %68, 1
  %70 = sext i32 %69 to i64
  %71 = call noundef nonnull align 8 dereferenceable(8) ptr @_ZNSt6vectorIdSaIdEEixEm(ptr noundef nonnull align 8 dereferenceable(24) %66, i64 noundef %70) #3
  %72 = load double, ptr %71, align 8, !tbaa !40
  %73 = fneg double %72
  %74 = getelementptr inbounds nuw %"class.cv::epnp", ptr %7, i32 0, i32 7
  %75 = load i32, ptr %6, align 4, !tbaa !10
  %76 = mul nsw i32 3, %75
  %77 = add nsw i32 %76, 1
  %78 = sext i32 %77 to i64
  %79 = call noundef nonnull align 8 dereferenceable(8) ptr @_ZNSt6vectorIdSaIdEEixEm(ptr noundef nonnull align 8 dereferenceable(24) %74, i64 noundef %78) #3
  store double %73, ptr %79, align 8, !tbaa !40
  %80 = getelementptr inbounds nuw %"class.cv::epnp", ptr %7, i32 0, i32 7
  %81 = load i32, ptr %6, align 4, !tbaa !10
  %82 = mul nsw i32 3, %81
  %83 = add nsw i32 %82, 2
  %84 = sext i32 %83 to i64
  %85 = call noundef nonnull align 8 dereferenceable(8) ptr @_ZNSt6vectorIdSaIdEEixEm(ptr noundef nonnull align 8 dereferenceable(24) %80, i64 noundef %84) #3
  %86 = load double, ptr %85, align 8, !tbaa !40
  %87 = fneg double %86
  %88 = getelementptr inbounds nuw %"class.cv::epnp", ptr %7, i32 0, i32 7
  %89 = load i32, ptr %6, align 4, !tbaa !10
  %90 = mul nsw i32 3, %89
  %91 = add nsw i32 %90, 2
  %92 = sext i32 %91 to i64
  %93 = call noundef nonnull align 8 dereferenceable(8) ptr @_ZNSt6vectorIdSaIdEEixEm(ptr noundef nonnull align 8 dereferenceable(24) %88, i64 noundef %92) #3
  store double %87, ptr %93, align 8, !tbaa !40
  br label %94

94:                                               ; preds = %53
  %95 = load i32, ptr %6, align 4, !tbaa !10
  %96 = add nsw i32 %95, 1
  store i32 %96, ptr %6, align 4, !tbaa !10
  br label %47, !llvm.loop !117

97:                                               ; preds = %52
  br label %98

98:                                               ; preds = %97, %1
  ret void
}