; Function Attrs: mustprogress nofree norecurse nosync nounwind memory(readwrite, inaccessiblemem: none) uwtable
define hidden void @_ZN2cv4epnp14solve_for_signEv(ptr noundef nonnull align 8 captures(none) dereferenceable(352) %0) local_unnamed_addr #12 align 2 {
  %2 = getelementptr inbounds nuw i8, ptr %0, i64 104
  %3 = load ptr, ptr %2, align 8, !tbaa !36
  %4 = getelementptr inbounds nuw i8, ptr %3, i64 16
  %5 = load double, ptr %4, align 8, !tbaa !32
  %6 = fcmp olt double %5, 0.000000e+00
  br i1 %6, label %.preheader19, label %.loopexit

.preheader19:                                     ; preds = %1
  %7 = getelementptr inbounds nuw i8, ptr %0, i64 232
  br label %.preheader18

.preheader18:                                     ; preds = %.preheader19, %11
  %indvars.iv26 = phi i64 [ 0, %.preheader19 ], [ %indvars.iv.next27, %11 ]
  br label %12

.preheader:                                       ; preds = %11
  %8 = getelementptr inbounds nuw i8, ptr %0, i64 128
  %9 = load i32, ptr %8, align 8, !tbaa !34
  %invariant.gep = getelementptr inbounds nuw i8, ptr %3, i64 8
  %10 = icmp sgt i32 %9, 0
  br i1 %10, label %.lr.ph.preheader, label %.loopexit

.lr.ph.preheader:                                 ; preds = %.preheader
  %wide.trip.count = zext nneg i32 %9 to i64
  br label %.lr.ph

11:                                               ; preds = %12
  %indvars.iv.next27 = add nuw nsw i64 %indvars.iv26, 1
  %exitcond29.not = icmp eq i64 %indvars.iv.next27, 4
  br i1 %exitcond29.not, label %.preheader, label %.preheader18, !llvm.loop !142

12:                                               ; preds = %.preheader18, %12
  %indvars.iv = phi i64 [ 0, %.preheader18 ], [ %indvars.iv.next, %12 ]
  %13 = getelementptr inbounds nuw [4 x [3 x double]], ptr %7, i64 0, i64 %indvars.iv26, i64 %indvars.iv
  %14 = load double, ptr %13, align 8, !tbaa !32
  %15 = fneg double %14
  store double %15, ptr %13, align 8, !tbaa !32
  %indvars.iv.next = add nuw nsw i64 %indvars.iv, 1
  %exitcond.not = icmp eq i64 %indvars.iv.next, 3
  br i1 %exitcond.not, label %11, label %12, !llvm.loop !143

.lr.ph:                                           ; preds = %.lr.ph.preheader, %.lr.ph
  %indvars.iv30 = phi i64 [ 0, %.lr.ph.preheader ], [ %indvars.iv.next31, %.lr.ph ]
  %16 = mul nuw nsw i64 %indvars.iv30, 3
  %17 = getelementptr inbounds nuw double, ptr %3, i64 %16
  %18 = load double, ptr %17, align 8, !tbaa !32
  %19 = fneg double %18
  store double %19, ptr %17, align 8, !tbaa !32
  %gep = getelementptr inbounds nuw double, ptr %invariant.gep, i64 %16
  %20 = load double, ptr %gep, align 8, !tbaa !32
  %21 = fneg double %20
  store double %21, ptr %gep, align 8, !tbaa !32
  %gep23 = getelementptr inbounds nuw double, ptr %4, i64 %16
  %22 = load double, ptr %gep23, align 8, !tbaa !32
  %23 = fneg double %22
  store double %23, ptr %gep23, align 8, !tbaa !32
  %indvars.iv.next31 = add nuw nsw i64 %indvars.iv30, 1
  %exitcond33.not = icmp eq i64 %indvars.iv.next31, %wide.trip.count
  br i1 %exitcond33.not, label %.loopexit, label %.lr.ph, !llvm.loop !144

.loopexit:                                        ; preds = %.lr.ph, %.preheader, %1
  ret void
}